; Function Attrs: mustprogress nofree norecurse nosync nounwind willreturn memory(read, inaccessiblemem: none) uwtable
define noundef zeroext i1 @_ZNK18OpenImageIO_v2_6_010ImageInput14ioproxy_openedEv(ptr nocapture noundef nonnull readonly align 8 dereferenceable(184) %this) local_unnamed_addr #9 align 2 {
entry:
  %add.ptr.i.i.i.i.i.i = getelementptr inbounds i8, ptr %this, i64 176
  %0 = load ptr, ptr %add.ptr.i.i.i.i.i.i, align 8
  %m_io2 = getelementptr inbounds i8, ptr %0, i64 56
  %1 = load ptr, ptr %m_io2, align 8
  %cmp.not = icmp eq ptr %1, null
  br i1 %cmp.not, label %land.end, label %land.rhs

land.rhs:                                         ; preds = %entry
  %m_mode.i = getelementptr inbounds i8, ptr %1, i64 48
  %2 = load i32, ptr %m_mode.i, align 8
  %cmp4 = icmp eq i32 %2, 114
  br label %land.end

land.end:                                         ; preds = %land.rhs, %entry
  %3 = phi i1 [ false, %entry ], [ %cmp4, %land.rhs ]
  ret i1 %3
}